; Function Attrs: mustprogress uwtable
define void @_ZN2cv3hal8recip16uEPKtmS2_mPtmiiPv(ptr nocapture noundef readnone %0, i64 noundef %1, ptr nocapture noundef readonly %2, i64 noundef %3, ptr nocapture noundef writeonly %4, i64 noundef %5, i32 noundef %6, i32 noundef %7, ptr nocapture noundef readonly %8) local_unnamed_addr #3 personality ptr @__gxx_personality_v0 {
  %10 = alloca %"class.cv::utils::trace::details::Region", align 8
  %11 = alloca %"class.cv::utils::trace::details::Region", align 8
  call void @_ZN2cv5utils5trace7details6RegionC1ERKNS3_21LocationStaticStorageE(ptr noundef nonnull align 8 dereferenceable(12) %11, ptr noundef nonnull align 8 dereferenceable(32) @_ZZN2cv3hal8recip16uEPKtmS2_mPtmiiPvE26__cv_trace_location_fn1927)
  call void @llvm.lifetime.start.p0(i64 16, ptr nonnull %10)
  invoke void @_ZN2cv5utils5trace7details6RegionC1ERKNS3_21LocationStaticStorageE(ptr noundef nonnull align 8 dereferenceable(12) %10, ptr noundef nonnull align 8 dereferenceable(32) @_ZZN2cv3hal12cpu_baseline8recip16uEPKtmPtmiiPKdE26__cv_trace_location_fn1927)
          to label %.noexc unwind label %45

.noexc:                                           ; preds = %9
  %.val.i = load double, ptr %8, align 8
  %12 = fptrunc double %.val.i to float
  %13 = lshr i64 %3, 1
  %14 = lshr i64 %5, 1
  %.not18.i.i.i = icmp ne i32 %7, 0
  %15 = icmp sgt i32 %6, 0
  %or.cond.i.i.i = and i1 %15, %.not18.i.i.i
  br i1 %or.cond.i.i.i, label %.preheader.us.preheader.i.i.i, label %_ZN2cv3hal12cpu_baselineL10recip_loopItNS_12hal_baseline5v_regItLi8EEEEEvPKT_mPS6_miiPKd.exit.i

.preheader.us.preheader.i.i.i:                    ; preds = %.noexc
  %wide.trip.count.i.i.i = zext nneg i32 %6 to i64
  br label %.preheader.us.i.i.i

.preheader.us.i.i.i:                              ; preds = %._crit_edge.us.i.i.i, %.preheader.us.preheader.i.i.i
  %.in.i.i.i = phi i32 [ %29, %._crit_edge.us.i.i.i ], [ %7, %.preheader.us.preheader.i.i.i ]
  %.01420.us.i.i.i = phi ptr [ %30, %._crit_edge.us.i.i.i ], [ %2, %.preheader.us.preheader.i.i.i ]
  %.01619.us.i.i.i = phi ptr [ %31, %._crit_edge.us.i.i.i ], [ %4, %.preheader.us.preheader.i.i.i ]
  br label %16

16:                                               ; preds = %_ZN2cv3hal12cpu_baseline8op_recipItfNS_12hal_baseline5v_regItLi8EEEE1rEtPKf.exit.us.i.i.i, %.preheader.us.i.i.i
  %indvars.iv.i.i.i = phi i64 [ 0, %.preheader.us.i.i.i ], [ %indvars.iv.next.i.i.i, %_ZN2cv3hal12cpu_baseline8op_recipItfNS_12hal_baseline5v_regItLi8EEEE1rEtPKf.exit.us.i.i.i ]
  %17 = getelementptr inbounds i16, ptr %.01420.us.i.i.i, i64 %indvars.iv.i.i.i
  %18 = load i16, ptr %17, align 2
  %.not.i.us.i.i.i = icmp eq i16 %18, 0
  br i1 %.not.i.us.i.i.i, label %_ZN2cv3hal12cpu_baseline8op_recipItfNS_12hal_baseline5v_regItLi8EEEE1rEtPKf.exit.us.i.i.i, label %19

19:                                               ; preds = %16
  %20 = uitofp i16 %18 to float
  %21 = fdiv float %12, %20
  %22 = insertelement <4 x float> poison, float %21, i64 0
  %23 = call noundef i32 @llvm.x86.sse.cvtss2si(<4 x float> %22)
  %24 = call i32 @llvm.smax.i32(i32 %23, i32 0)
  %25 = call i32 @llvm.umin.i32(i32 %24, i32 65535)
  %26 = trunc nuw i32 %25 to i16
  br label %_ZN2cv3hal12cpu_baseline8op_recipItfNS_12hal_baseline5v_regItLi8EEEE1rEtPKf.exit.us.i.i.i

_ZN2cv3hal12cpu_baseline8op_recipItfNS_12hal_baseline5v_regItLi8EEEE1rEtPKf.exit.us.i.i.i: ; preds = %19, %16
  %27 = phi i16 [ %26, %19 ], [ 0, %16 ]
  %28 = getelementptr inbounds i16, ptr %.01619.us.i.i.i, i64 %indvars.iv.i.i.i
  store i16 %27, ptr %28, align 2
  %indvars.iv.next.i.i.i = add nuw nsw i64 %indvars.iv.i.i.i, 1
  %exitcond.not.i.i.i = icmp eq i64 %indvars.iv.next.i.i.i, %wide.trip.count.i.i.i
  br i1 %exitcond.not.i.i.i, label %._crit_edge.us.i.i.i, label %16, !llvm.loop !239

._crit_edge.us.i.i.i:                             ; preds = %_ZN2cv3hal12cpu_baseline8op_recipItfNS_12hal_baseline5v_regItLi8EEEE1rEtPKf.exit.us.i.i.i
  %29 = add nsw i32 %.in.i.i.i, -1
  %30 = getelementptr inbounds i16, ptr %.01420.us.i.i.i, i64 %13
  %31 = getelementptr inbounds i16, ptr %.01619.us.i.i.i, i64 %14
  %.not.us.i.i.i = icmp eq i32 %29, 0
  br i1 %.not.us.i.i.i, label %_ZN2cv3hal12cpu_baselineL10recip_loopItNS_12hal_baseline5v_regItLi8EEEEEvPKT_mPS6_miiPKd.exit.i, label %.preheader.us.i.i.i, !llvm.loop !240

_ZN2cv3hal12cpu_baselineL10recip_loopItNS_12hal_baseline5v_regItLi8EEEEEvPKT_mPS6_miiPKd.exit.i: ; preds = %._crit_edge.us.i.i.i, %.noexc
  %32 = getelementptr inbounds i8, ptr %10, i64 8
  %33 = load i32, ptr %32, align 8
  %.not.i.i = icmp eq i32 %33, 0
  br i1 %.not.i.i, label %38, label %34

34:                                               ; preds = %_ZN2cv3hal12cpu_baselineL10recip_loopItNS_12hal_baseline5v_regItLi8EEEEEvPKT_mPS6_miiPKd.exit.i
  invoke void @_ZN2cv5utils5trace7details6Region7destroyEv(ptr noundef nonnull align 8 dereferenceable(12) %10)
          to label %38 unwind label %35

35:                                               ; preds = %34
  %36 = landingpad { ptr, i32 }
          catch ptr null
  %37 = extractvalue { ptr, i32 } %36, 0
  call void @__clang_call_terminate(ptr %37) #11
  unreachable

38:                                               ; preds = %34, %_ZN2cv3hal12cpu_baselineL10recip_loopItNS_12hal_baseline5v_regItLi8EEEEEvPKT_mPS6_miiPKd.exit.i
  call void @llvm.lifetime.end.p0(i64 16, ptr nonnull %10)
  %39 = getelementptr inbounds i8, ptr %11, i64 8
  %40 = load i32, ptr %39, align 8
  %.not.i = icmp eq i32 %40, 0
  br i1 %.not.i, label %_ZN2cv5utils5trace7details6RegionD2Ev.exit, label %41

41:                                               ; preds = %38
  invoke void @_ZN2cv5utils5trace7details6Region7destroyEv(ptr noundef nonnull align 8 dereferenceable(12) %11)
          to label %_ZN2cv5utils5trace7details6RegionD2Ev.exit unwind label %42

42:                                               ; preds = %41
  %43 = landingpad { ptr, i32 }
          catch ptr null
  %44 = extractvalue { ptr, i32 } %43, 0
  call void @__clang_call_terminate(ptr %44) #11
  unreachable

_ZN2cv5utils5trace7details6RegionD2Ev.exit:       ; preds = %38, %41
  ret void

45:                                               ; preds = %9
  %46 = landingpad { ptr, i32 }
          cleanup
  call void @_ZN2cv5utils5trace7details6RegionD2Ev(ptr noundef nonnull align 8 dereferenceable(12) %11) #12
  resume { ptr, i32 } %46
}